target datalayout = "e-m:e-p270:32:32-p271:32:32-p272:64:64-i64:64-i128:128-f80:128-n8:16:32:64-S128"
target triple = "x86_64-pc-linux-gnu"

%"class.LIEF::MachO::ExportInfo" = type { %"class.LIEF::Object", i64, i64, i64, i64, ptr, ptr, ptr }
%"class.LIEF::Object" = type { ptr }

; Function Attrs: mustprogress nounwind uwtable
define void @_ZN4LIEF5MachO10ExportInfoC2ERKS1_(ptr noundef nonnull align 8 dereferenceable(64) %0, ptr noundef nonnull align 8 dereferenceable(64) %1) unnamed_addr #0 align 2 {
  %3 = alloca ptr, align 8
  %4 = alloca ptr, align 8
  store ptr %0, ptr %3, align 8, !tbaa !3
  store ptr %1, ptr %4, align 8, !tbaa !3
  %5 = load ptr, ptr %3, align 8
  %6 = load ptr, ptr %4, align 8, !tbaa !3
  call void @_ZN4LIEF6ObjectC2ERKS0_(ptr noundef nonnull align 8 dereferenceable(8) %5, ptr noundef nonnull align 8 dereferenceable(8) %6)
  store ptr getelementptr inbounds inrange(-16, 40) ({ [7 x ptr] }, ptr @_ZTVN4LIEF5MachO10ExportInfoE, i32 0, i32 0, i32 2), ptr %5, align 8, !tbaa !8
  %7 = getelementptr inbounds nuw %"class.LIEF::MachO::ExportInfo", ptr %5, i32 0, i32 1
  %8 = load ptr, ptr %4, align 8, !tbaa !3
  %9 = getelementptr inbounds nuw %"class.LIEF::MachO::ExportInfo", ptr %8, i32 0, i32 1
  %10 = load i64, ptr %9, align 8, !tbaa !10
  store i64 %10, ptr %7, align 8, !tbaa !10
  %11 = getelementptr inbounds nuw %"class.LIEF::MachO::ExportInfo", ptr %5, i32 0, i32 2
  %12 = load ptr, ptr %4, align 8, !tbaa !3
  %13 = getelementptr inbounds nuw %"class.LIEF::MachO::ExportInfo", ptr %12, i32 0, i32 2
  %14 = load i64, ptr %13, align 8, !tbaa !16
  store i64 %14, ptr %11, align 8, !tbaa !16
  %15 = getelementptr inbounds nuw %"class.LIEF::MachO::ExportInfo", ptr %5, i32 0, i32 3
  %16 = load ptr, ptr %4, align 8, !tbaa !3
  %17 = getelementptr inbounds nuw %"class.LIEF::MachO::ExportInfo", ptr %16, i32 0, i32 3
  %18 = load i64, ptr %17, align 8, !tbaa !17
  store i64 %18, ptr %15, align 8, !tbaa !17
  %19 = getelementptr inbounds nuw %"class.LIEF::MachO::ExportInfo", ptr %5, i32 0, i32 4
  %20 = load ptr, ptr %4, align 8, !tbaa !3
  %21 = getelementptr inbounds nuw %"class.LIEF::MachO::ExportInfo", ptr %20, i32 0, i32 4
  %22 = load i64, ptr %21, align 8, !tbaa !18
  store i64 %22, ptr %19, align 8, !tbaa !18
  %23 = getelementptr inbounds nuw %"class.LIEF::MachO::ExportInfo", ptr %5, i32 0, i32 5
  store ptr null, ptr %23, align 8, !tbaa !19
  %24 = getelementptr inbounds nuw %"class.LIEF::MachO::ExportInfo", ptr %5, i32 0, i32 6
  store ptr null, ptr %24, align 8, !tbaa !20
  %25 = getelementptr inbounds nuw %"class.LIEF::MachO::ExportInfo", ptr %5, i32 0, i32 7
  store ptr null, ptr %25, align 8, !tbaa !21
  ret void
}